CCS PCH C Compiler, Version 5.008, 5967               01-abr-17 09:01

               Filename:   C:\Users\Pedro\Google Drive\Pedro\ifpb\software\pic\pic.lst

               ROM used:   1588 bytes (5%)
                           Largest free fragment is 31176
               RAM used:   27 (2%) at main() level
                           27 (2%) worst case
               Stack used: 1 locations (0 in main + 1 for interrupts)
               Stack size: 31

*
0000:  GOTO   00AC
*
0008:  MOVWF  04
000A:  MOVFF  FD8,05
000E:  MOVFF  FE0,06
0012:  MOVLB  0
0014:  MOVFF  FE9,0C
0018:  MOVFF  FEA,07
001C:  MOVFF  FE1,08
0020:  MOVFF  FE2,09
0024:  MOVFF  FD9,0A
0028:  MOVFF  FDA,0B
002C:  MOVFF  FF3,12
0030:  MOVFF  FF4,13
0034:  MOVFF  FFA,14
0038:  MOVFF  00,0E
003C:  MOVFF  01,0F
0040:  MOVFF  02,10
0044:  MOVFF  03,11
0048:  BTFSS  F9D.1
004A:  GOTO   0054
004E:  BTFSC  F9E.1
0050:  GOTO   0096
0054:  MOVFF  0E,00
0058:  MOVFF  0F,01
005C:  MOVFF  10,02
0060:  MOVFF  11,03
0064:  MOVFF  0C,FE9
0068:  MOVFF  07,FEA
006C:  BSF    07.7
006E:  MOVFF  08,FE1
0072:  MOVFF  09,FE2
0076:  MOVFF  0A,FD9
007A:  MOVFF  0B,FDA
007E:  MOVFF  12,FF3
0082:  MOVFF  13,FF4
0086:  MOVFF  14,FFA
008A:  MOVF   04,W
008C:  MOVFF  06,FE0
0090:  MOVFF  05,FD8
0094:  RETFIE 0
.................... //A0  1 
.................... //A1  0 
.................... //A2  0 
.................... //A3  0 
.................... #include <pic.h> 
.................... #include <18F252.h> 
.................... //////// Standard Header file for the PIC18F252 device //////////////// 
.................... #device PIC18F252 
....................  
.................... #list 
....................  
.................... //#device ADC=8 
....................  
.................... #FUSES NOWDT                      //Watch Dog Timer 
.................... //#FUSES WDT64                    //Watch Dog Timer uses 1:64 Postscale 
.................... #FUSES NOBROWNOUT               //No brownout reset 
.................... #FUSES NOLVP                    //No low voltage prgming, B3(PIC16) or B5(PIC18) used for I/O 
....................  
.................... #use delay(crystal=4000000) 
....................  
....................  
.................... int x = 0; 
.................... int a = 0; 
.................... int b = 0; 
.................... int c = 0; 
.................... int d = 0; 
....................  
.................... #INT_TIMER2 
.................... void  TIMER2_isr(void)  
.................... { 
.................... x= x+1; 
0096:  MOVLW  01
0098:  ADDWF  16,F
....................  
....................  
.................... /* 
....................       if(input(PIN_A0)) 
....................       d = 1; 
....................       if(input(PIN_A1)) 
....................       c = 1; 
....................       if(input(PIN_A2)) 
....................       b = 1; 
....................       if(input(PIN_A3)) 
....................       a = 1; 
....................       if(input(!PIN_A0)) 
....................       d = 0; 
....................       if(input(!PIN_A1)) 
....................       c = 0; 
....................       if(input(!PIN_A2)) 
....................       b = 0; 
....................       if(input(!PIN_A3)) 
....................       a = 0; 
....................  */     
.................... if(x == 10) {//80ms 
009A:  MOVF   16,W
009C:  SUBLW  0A
009E:  BNZ   00A6
.................... output_toggle(pin_A5); 
00A0:  BCF    F92.5
00A2:  BTG    F89.5
.................... x=0; 
00A4:  CLRF   16
.................... } 
00A6:  BCF    F9E.1
00A8:  GOTO   0054
.................... } 
....................  
.................... void main() 
00AC:  CLRF   FF8
00AE:  BCF    FD0.7
00B0:  BSF    07.7
00B2:  CLRF   16
00B4:  CLRF   17
00B6:  CLRF   18
00B8:  CLRF   19
00BA:  CLRF   1A
00BC:  BSF    FC1.0
00BE:  BSF    FC1.1
00C0:  BSF    FC1.2
00C2:  BCF    FC1.3
.................... { 
....................  
....................    enable_interrupts(INT_TIMER2); 
00C4:  BSF    F9D.1
....................    enable_interrupts(GLOBAL); 
00C6:  MOVLW  C0
00C8:  IORWF  FF2,F
....................    setup_timer_2(T2_DIV_BY_16,249,10);      //800 us overflow, 8,0 ms interrupt 
00CA:  MOVLW  48
00CC:  IORLW  06
00CE:  MOVWF  FCA
00D0:  MOVLW  F9
00D2:  MOVWF  FCB
....................    //setup_adc_ports(ALL_ANALOG); 
....................    //set_adc_channel(0); 
....................    output_high(pin_b0); 
00D4:  BCF    F93.0
00D6:  BSF    F8A.0
....................    output_high(pin_b1); 
00D8:  BCF    F93.1
00DA:  BSF    F8A.1
....................    output_high(pin_b2); 
00DC:  BCF    F93.2
00DE:  BSF    F8A.2
....................    output_high(pin_b3); 
00E0:  BCF    F93.3
00E2:  BSF    F8A.3
....................    output_high(pin_b4); 
00E4:  BCF    F93.4
00E6:  BSF    F8A.4
....................    output_high(pin_b5); 
00E8:  BCF    F93.5
00EA:  BSF    F8A.5
....................    output_high(pin_b6); 
00EC:  BCF    F93.6
00EE:  BSF    F8A.6
....................    output_high(pin_b7); 
00F0:  BCF    F93.7
00F2:  BSF    F8A.7
....................     
....................    output_low(pin_c0); 
00F4:  BCF    F94.0
00F6:  BCF    F8B.0
....................    output_low(pin_c1); 
00F8:  BCF    F94.1
00FA:  BCF    F8B.1
....................    output_low(pin_c2); 
00FC:  BCF    F94.2
00FE:  BCF    F8B.2
....................    output_low(pin_c3); 
0100:  BCF    F94.3
0102:  BCF    F8B.3
....................    output_low(pin_c4); 
0104:  BCF    F94.4
0106:  BCF    F8B.4
....................    output_low(pin_c5); 
0108:  BCF    F94.5
010A:  BCF    F8B.5
....................    output_low(pin_c6); 
010C:  BCF    F94.6
010E:  BCF    F8B.6
....................    output_low(pin_c7); 
0110:  BCF    F94.7
0112:  BCF    F8B.7
....................    while(TRUE) 
....................    { 
....................    d = input(PIN_A0); 
0114:  BSF    F92.0
0116:  CLRF   1A
0118:  BTFSC  F80.0
011A:  INCF   1A,F
....................    c = input(PIN_A1);  
011C:  BSF    F92.1
011E:  CLRF   19
0120:  BTFSC  F80.1
0122:  INCF   19,F
....................    b = input(PIN_A2); 
0124:  BSF    F92.2
0126:  CLRF   18
0128:  BTFSC  F80.2
012A:  INCF   18,F
....................    a = input(PIN_A3);  
012C:  BSF    F92.3
012E:  CLRF   17
0130:  BTFSC  F80.3
0132:  INCF   17,F
....................       if(a==0 && b==0 && c==0 && d==0){ 
0134:  MOVF   17,F
0136:  BNZ   0184
0138:  MOVF   18,F
013A:  BNZ   0184
013C:  MOVF   19,F
013E:  BNZ   0184
0140:  MOVF   1A,F
0142:  BNZ   0184
....................       output_high(pin_b0); 
0144:  BCF    F93.0
0146:  BSF    F8A.0
....................       output_high(pin_b1); 
0148:  BCF    F93.1
014A:  BSF    F8A.1
....................       output_high(pin_b2); 
014C:  BCF    F93.2
014E:  BSF    F8A.2
....................       output_high(pin_b3); 
0150:  BCF    F93.3
0152:  BSF    F8A.3
....................       output_high(pin_b4); 
0154:  BCF    F93.4
0156:  BSF    F8A.4
....................       output_high(pin_b5); 
0158:  BCF    F93.5
015A:  BSF    F8A.5
....................       output_high(pin_b6); 
015C:  BCF    F93.6
015E:  BSF    F8A.6
....................       output_high(pin_b7); 
0160:  BCF    F93.7
0162:  BSF    F8A.7
....................       output_low(pin_c0); 
0164:  BCF    F94.0
0166:  BCF    F8B.0
....................       output_low(pin_c1); 
0168:  BCF    F94.1
016A:  BCF    F8B.1
....................       output_low(pin_c2); 
016C:  BCF    F94.2
016E:  BCF    F8B.2
....................       output_low(pin_c3); 
0170:  BCF    F94.3
0172:  BCF    F8B.3
....................       output_low(pin_c4); 
0174:  BCF    F94.4
0176:  BCF    F8B.4
....................       output_low(pin_c5); 
0178:  BCF    F94.5
017A:  BCF    F8B.5
....................       output_low(pin_c6); 
017C:  BCF    F94.6
017E:  BCF    F8B.6
....................       output_low(pin_c7); 
0180:  BCF    F94.7
0182:  BCF    F8B.7
....................       } 
....................       if(a==0 && b==0 && c==0 && d==1){ 
0184:  MOVF   17,F
0186:  BNZ   01D4
0188:  MOVF   18,F
018A:  BNZ   01D4
018C:  MOVF   19,F
018E:  BNZ   01D4
0190:  DECFSZ 1A,W
0192:  BRA    01D4
....................       output_high(pin_b0); 
0194:  BCF    F93.0
0196:  BSF    F8A.0
....................       output_low(pin_b1); 
0198:  BCF    F93.1
019A:  BCF    F8A.1
....................       output_high(pin_b2); 
019C:  BCF    F93.2
019E:  BSF    F8A.2
....................       output_high(pin_b3); 
01A0:  BCF    F93.3
01A2:  BSF    F8A.3
....................       output_high(pin_b4); 
01A4:  BCF    F93.4
01A6:  BSF    F8A.4
....................       output_high(pin_b5); 
01A8:  BCF    F93.5
01AA:  BSF    F8A.5
....................       output_high(pin_b6); 
01AC:  BCF    F93.6
01AE:  BSF    F8A.6
....................       output_high(pin_b7); 
01B0:  BCF    F93.7
01B2:  BSF    F8A.7
....................       output_low(pin_c0); 
01B4:  BCF    F94.0
01B6:  BCF    F8B.0
....................       output_low(pin_c1); 
01B8:  BCF    F94.1
01BA:  BCF    F8B.1
....................       output_low(pin_c2); 
01BC:  BCF    F94.2
01BE:  BCF    F8B.2
....................       output_low(pin_c3); 
01C0:  BCF    F94.3
01C2:  BCF    F8B.3
....................       output_low(pin_c4); 
01C4:  BCF    F94.4
01C6:  BCF    F8B.4
....................       output_low(pin_c5); 
01C8:  BCF    F94.5
01CA:  BCF    F8B.5
....................       output_low(pin_c6); 
01CC:  BCF    F94.6
01CE:  BCF    F8B.6
....................       output_low(pin_c7); 
01D0:  BCF    F94.7
01D2:  BCF    F8B.7
....................       } 
....................       if(a==0 && b==0 && c==1 && d==0){ 
01D4:  MOVF   17,F
01D6:  BNZ   0224
01D8:  MOVF   18,F
01DA:  BNZ   0224
01DC:  DECFSZ 19,W
01DE:  BRA    0224
01E0:  MOVF   1A,F
01E2:  BNZ   0224
....................       output_high(pin_b0); 
01E4:  BCF    F93.0
01E6:  BSF    F8A.0
....................       output_high(pin_b1); 
01E8:  BCF    F93.1
01EA:  BSF    F8A.1
....................       output_low(pin_b2); 
01EC:  BCF    F93.2
01EE:  BCF    F8A.2
....................       output_high(pin_b3); 
01F0:  BCF    F93.3
01F2:  BSF    F8A.3
....................       output_high(pin_b4); 
01F4:  BCF    F93.4
01F6:  BSF    F8A.4
....................       output_high(pin_b5); 
01F8:  BCF    F93.5
01FA:  BSF    F8A.5
....................       output_high(pin_b6); 
01FC:  BCF    F93.6
01FE:  BSF    F8A.6
....................       output_high(pin_b7); 
0200:  BCF    F93.7
0202:  BSF    F8A.7
....................       output_low(pin_c0); 
0204:  BCF    F94.0
0206:  BCF    F8B.0
....................       output_low(pin_c1); 
0208:  BCF    F94.1
020A:  BCF    F8B.1
....................       output_low(pin_c2); 
020C:  BCF    F94.2
020E:  BCF    F8B.2
....................       output_low(pin_c3); 
0210:  BCF    F94.3
0212:  BCF    F8B.3
....................       output_low(pin_c4); 
0214:  BCF    F94.4
0216:  BCF    F8B.4
....................       output_low(pin_c5); 
0218:  BCF    F94.5
021A:  BCF    F8B.5
....................       output_low(pin_c6); 
021C:  BCF    F94.6
021E:  BCF    F8B.6
....................       output_low(pin_c7);   
0220:  BCF    F94.7
0222:  BCF    F8B.7
....................       } 
....................       if(a==0 && b==0 && c==1 && d==1){ 
0224:  MOVF   17,F
0226:  BNZ   0274
0228:  MOVF   18,F
022A:  BNZ   0274
022C:  DECFSZ 19,W
022E:  BRA    0274
0230:  DECFSZ 1A,W
0232:  BRA    0274
....................       output_high(pin_b0); 
0234:  BCF    F93.0
0236:  BSF    F8A.0
....................       output_high(pin_b1); 
0238:  BCF    F93.1
023A:  BSF    F8A.1
....................       output_high(pin_b2); 
023C:  BCF    F93.2
023E:  BSF    F8A.2
....................       output_low(pin_b3); 
0240:  BCF    F93.3
0242:  BCF    F8A.3
....................       output_high(pin_b4); 
0244:  BCF    F93.4
0246:  BSF    F8A.4
....................       output_high(pin_b5); 
0248:  BCF    F93.5
024A:  BSF    F8A.5
....................       output_high(pin_b6); 
024C:  BCF    F93.6
024E:  BSF    F8A.6
....................       output_high(pin_b7); 
0250:  BCF    F93.7
0252:  BSF    F8A.7
....................       output_low(pin_c0); 
0254:  BCF    F94.0
0256:  BCF    F8B.0
....................       output_low(pin_c1); 
0258:  BCF    F94.1
025A:  BCF    F8B.1
....................       output_low(pin_c2); 
025C:  BCF    F94.2
025E:  BCF    F8B.2
....................       output_low(pin_c3); 
0260:  BCF    F94.3
0262:  BCF    F8B.3
....................       output_low(pin_c4); 
0264:  BCF    F94.4
0266:  BCF    F8B.4
....................       output_low(pin_c5); 
0268:  BCF    F94.5
026A:  BCF    F8B.5
....................       output_low(pin_c6); 
026C:  BCF    F94.6
026E:  BCF    F8B.6
....................       output_low(pin_c7); 
0270:  BCF    F94.7
0272:  BCF    F8B.7
....................       } 
....................       if(a==0 && b==1 && c==0 && d==0){ 
0274:  MOVF   17,F
0276:  BNZ   02C4
0278:  DECFSZ 18,W
027A:  BRA    02C4
027C:  MOVF   19,F
027E:  BNZ   02C4
0280:  MOVF   1A,F
0282:  BNZ   02C4
....................       output_high(pin_b0); 
0284:  BCF    F93.0
0286:  BSF    F8A.0
....................       output_high(pin_b1); 
0288:  BCF    F93.1
028A:  BSF    F8A.1
....................       output_high(pin_b2); 
028C:  BCF    F93.2
028E:  BSF    F8A.2
....................       output_high(pin_b3); 
0290:  BCF    F93.3
0292:  BSF    F8A.3
....................       output_low(pin_b4); 
0294:  BCF    F93.4
0296:  BCF    F8A.4
....................       output_high(pin_b5); 
0298:  BCF    F93.5
029A:  BSF    F8A.5
....................       output_high(pin_b6); 
029C:  BCF    F93.6
029E:  BSF    F8A.6
....................       output_high(pin_b7); 
02A0:  BCF    F93.7
02A2:  BSF    F8A.7
....................       output_low(pin_c0); 
02A4:  BCF    F94.0
02A6:  BCF    F8B.0
....................       output_low(pin_c1); 
02A8:  BCF    F94.1
02AA:  BCF    F8B.1
....................       output_low(pin_c2); 
02AC:  BCF    F94.2
02AE:  BCF    F8B.2
....................       output_low(pin_c3); 
02B0:  BCF    F94.3
02B2:  BCF    F8B.3
....................       output_low(pin_c4); 
02B4:  BCF    F94.4
02B6:  BCF    F8B.4
....................       output_low(pin_c5); 
02B8:  BCF    F94.5
02BA:  BCF    F8B.5
....................       output_low(pin_c6); 
02BC:  BCF    F94.6
02BE:  BCF    F8B.6
....................       output_low(pin_c7); 
02C0:  BCF    F94.7
02C2:  BCF    F8B.7
....................       } 
....................       if(a==0 && b==1 && c==0 && d==1){ 
02C4:  MOVF   17,F
02C6:  BNZ   0314
02C8:  DECFSZ 18,W
02CA:  BRA    0314
02CC:  MOVF   19,F
02CE:  BNZ   0314
02D0:  DECFSZ 1A,W
02D2:  BRA    0314
....................       output_high(pin_b0); 
02D4:  BCF    F93.0
02D6:  BSF    F8A.0
....................       output_high(pin_b1); 
02D8:  BCF    F93.1
02DA:  BSF    F8A.1
....................       output_high(pin_b2); 
02DC:  BCF    F93.2
02DE:  BSF    F8A.2
....................       output_high(pin_b3); 
02E0:  BCF    F93.3
02E2:  BSF    F8A.3
....................       output_high(pin_b4); 
02E4:  BCF    F93.4
02E6:  BSF    F8A.4
....................       output_low(pin_b5); 
02E8:  BCF    F93.5
02EA:  BCF    F8A.5
....................       output_high(pin_b6); 
02EC:  BCF    F93.6
02EE:  BSF    F8A.6
....................       output_high(pin_b7); 
02F0:  BCF    F93.7
02F2:  BSF    F8A.7
....................       output_low(pin_c0); 
02F4:  BCF    F94.0
02F6:  BCF    F8B.0
....................       output_low(pin_c1); 
02F8:  BCF    F94.1
02FA:  BCF    F8B.1
....................       output_low(pin_c2); 
02FC:  BCF    F94.2
02FE:  BCF    F8B.2
....................       output_low(pin_c3); 
0300:  BCF    F94.3
0302:  BCF    F8B.3
....................       output_low(pin_c4); 
0304:  BCF    F94.4
0306:  BCF    F8B.4
....................       output_low(pin_c5); 
0308:  BCF    F94.5
030A:  BCF    F8B.5
....................       output_low(pin_c6); 
030C:  BCF    F94.6
030E:  BCF    F8B.6
....................       output_low(pin_c7); 
0310:  BCF    F94.7
0312:  BCF    F8B.7
....................       } 
....................       if(a==0 && b==1 && c==1 && d==0){ 
0314:  MOVF   17,F
0316:  BNZ   0364
0318:  DECFSZ 18,W
031A:  BRA    0364
031C:  DECFSZ 19,W
031E:  BRA    0364
0320:  MOVF   1A,F
0322:  BNZ   0364
....................       output_high(pin_b0); 
0324:  BCF    F93.0
0326:  BSF    F8A.0
....................       output_high(pin_b1); 
0328:  BCF    F93.1
032A:  BSF    F8A.1
....................       output_high(pin_b2); 
032C:  BCF    F93.2
032E:  BSF    F8A.2
....................       output_high(pin_b3); 
0330:  BCF    F93.3
0332:  BSF    F8A.3
....................       output_high(pin_b4); 
0334:  BCF    F93.4
0336:  BSF    F8A.4
....................       output_high(pin_b5); 
0338:  BCF    F93.5
033A:  BSF    F8A.5
....................       output_low(pin_b6); 
033C:  BCF    F93.6
033E:  BCF    F8A.6
....................       output_high(pin_b7); 
0340:  BCF    F93.7
0342:  BSF    F8A.7
....................       output_low(pin_c0); 
0344:  BCF    F94.0
0346:  BCF    F8B.0
....................       output_low(pin_c1); 
0348:  BCF    F94.1
034A:  BCF    F8B.1
....................       output_low(pin_c2); 
034C:  BCF    F94.2
034E:  BCF    F8B.2
....................       output_low(pin_c3); 
0350:  BCF    F94.3
0352:  BCF    F8B.3
....................       output_low(pin_c4); 
0354:  BCF    F94.4
0356:  BCF    F8B.4
....................       output_low(pin_c5); 
0358:  BCF    F94.5
035A:  BCF    F8B.5
....................       output_low(pin_c6); 
035C:  BCF    F94.6
035E:  BCF    F8B.6
....................       output_low(pin_c7); 
0360:  BCF    F94.7
0362:  BCF    F8B.7
....................       } 
....................       if(a==0 && b==1 && c==1 && d==1){ 
0364:  MOVF   17,F
0366:  BNZ   03B4
0368:  DECFSZ 18,W
036A:  BRA    03B4
036C:  DECFSZ 19,W
036E:  BRA    03B4
0370:  DECFSZ 1A,W
0372:  BRA    03B4
....................       output_high(pin_b0); 
0374:  BCF    F93.0
0376:  BSF    F8A.0
....................       output_high(pin_b1); 
0378:  BCF    F93.1
037A:  BSF    F8A.1
....................       output_high(pin_b2); 
037C:  BCF    F93.2
037E:  BSF    F8A.2
....................       output_high(pin_b3); 
0380:  BCF    F93.3
0382:  BSF    F8A.3
....................       output_high(pin_b4); 
0384:  BCF    F93.4
0386:  BSF    F8A.4
....................       output_high(pin_b5); 
0388:  BCF    F93.5
038A:  BSF    F8A.5
....................       output_high(pin_b6); 
038C:  BCF    F93.6
038E:  BSF    F8A.6
....................       output_low(pin_b7); 
0390:  BCF    F93.7
0392:  BCF    F8A.7
....................       output_low(pin_c0); 
0394:  BCF    F94.0
0396:  BCF    F8B.0
....................       output_low(pin_c1); 
0398:  BCF    F94.1
039A:  BCF    F8B.1
....................       output_low(pin_c2); 
039C:  BCF    F94.2
039E:  BCF    F8B.2
....................       output_low(pin_c3); 
03A0:  BCF    F94.3
03A2:  BCF    F8B.3
....................       output_low(pin_c4); 
03A4:  BCF    F94.4
03A6:  BCF    F8B.4
....................       output_low(pin_c5); 
03A8:  BCF    F94.5
03AA:  BCF    F8B.5
....................       output_low(pin_c6); 
03AC:  BCF    F94.6
03AE:  BCF    F8B.6
....................       output_low(pin_c7); 
03B0:  BCF    F94.7
03B2:  BCF    F8B.7
....................       } 
....................       if(a==1 && b==0 && c==0 && d==0){ 
03B4:  DECFSZ 17,W
03B6:  BRA    0404
03B8:  MOVF   18,F
03BA:  BNZ   0404
03BC:  MOVF   19,F
03BE:  BNZ   0404
03C0:  MOVF   1A,F
03C2:  BNZ   0404
....................       output_high(pin_b0); 
03C4:  BCF    F93.0
03C6:  BSF    F8A.0
....................       output_high(pin_b1); 
03C8:  BCF    F93.1
03CA:  BSF    F8A.1
....................       output_high(pin_b2); 
03CC:  BCF    F93.2
03CE:  BSF    F8A.2
....................       output_high(pin_b3); 
03D0:  BCF    F93.3
03D2:  BSF    F8A.3
....................       output_high(pin_b4); 
03D4:  BCF    F93.4
03D6:  BSF    F8A.4
....................       output_high(pin_b5); 
03D8:  BCF    F93.5
03DA:  BSF    F8A.5
....................       output_high(pin_b6); 
03DC:  BCF    F93.6
03DE:  BSF    F8A.6
....................       output_high(pin_b7); 
03E0:  BCF    F93.7
03E2:  BSF    F8A.7
....................       output_high(pin_c0); 
03E4:  BCF    F94.0
03E6:  BSF    F8B.0
....................       output_low(pin_c1); 
03E8:  BCF    F94.1
03EA:  BCF    F8B.1
....................       output_low(pin_c2); 
03EC:  BCF    F94.2
03EE:  BCF    F8B.2
....................       output_low(pin_c3); 
03F0:  BCF    F94.3
03F2:  BCF    F8B.3
....................       output_low(pin_c4); 
03F4:  BCF    F94.4
03F6:  BCF    F8B.4
....................       output_low(pin_c5); 
03F8:  BCF    F94.5
03FA:  BCF    F8B.5
....................       output_low(pin_c6); 
03FC:  BCF    F94.6
03FE:  BCF    F8B.6
....................       output_low(pin_c7);    
0400:  BCF    F94.7
0402:  BCF    F8B.7
....................       } 
....................       if(a==1 && b==0 && c==0 && d==1){ 
0404:  DECFSZ 17,W
0406:  BRA    0454
0408:  MOVF   18,F
040A:  BNZ   0454
040C:  MOVF   19,F
040E:  BNZ   0454
0410:  DECFSZ 1A,W
0412:  BRA    0454
....................       output_high(pin_b0); 
0414:  BCF    F93.0
0416:  BSF    F8A.0
....................       output_high(pin_b1); 
0418:  BCF    F93.1
041A:  BSF    F8A.1
....................       output_high(pin_b2); 
041C:  BCF    F93.2
041E:  BSF    F8A.2
....................       output_high(pin_b3); 
0420:  BCF    F93.3
0422:  BSF    F8A.3
....................       output_high(pin_b4); 
0424:  BCF    F93.4
0426:  BSF    F8A.4
....................       output_high(pin_b5); 
0428:  BCF    F93.5
042A:  BSF    F8A.5
....................       output_high(pin_b6); 
042C:  BCF    F93.6
042E:  BSF    F8A.6
....................       output_high(pin_b7); 
0430:  BCF    F93.7
0432:  BSF    F8A.7
....................       output_low(pin_c0); 
0434:  BCF    F94.0
0436:  BCF    F8B.0
....................       output_high(pin_c1); 
0438:  BCF    F94.1
043A:  BSF    F8B.1
....................       output_low(pin_c2); 
043C:  BCF    F94.2
043E:  BCF    F8B.2
....................       output_low(pin_c3); 
0440:  BCF    F94.3
0442:  BCF    F8B.3
....................       output_low(pin_c4); 
0444:  BCF    F94.4
0446:  BCF    F8B.4
....................       output_low(pin_c5); 
0448:  BCF    F94.5
044A:  BCF    F8B.5
....................       output_low(pin_c6); 
044C:  BCF    F94.6
044E:  BCF    F8B.6
....................       output_low(pin_c7); 
0450:  BCF    F94.7
0452:  BCF    F8B.7
....................       } 
....................       if(a==1 && b==0 && c==1 && d==0){ 
0454:  DECFSZ 17,W
0456:  BRA    04A4
0458:  MOVF   18,F
045A:  BNZ   04A4
045C:  DECFSZ 19,W
045E:  BRA    04A4
0460:  MOVF   1A,F
0462:  BNZ   04A4
....................       output_high(pin_b0); 
0464:  BCF    F93.0
0466:  BSF    F8A.0
....................       output_high(pin_b1); 
0468:  BCF    F93.1
046A:  BSF    F8A.1
....................       output_high(pin_b2); 
046C:  BCF    F93.2
046E:  BSF    F8A.2
....................       output_high(pin_b3); 
0470:  BCF    F93.3
0472:  BSF    F8A.3
....................       output_high(pin_b4); 
0474:  BCF    F93.4
0476:  BSF    F8A.4
....................       output_high(pin_b5); 
0478:  BCF    F93.5
047A:  BSF    F8A.5
....................       output_high(pin_b6); 
047C:  BCF    F93.6
047E:  BSF    F8A.6
....................       output_high(pin_b7); 
0480:  BCF    F93.7
0482:  BSF    F8A.7
....................       output_low(pin_c0); 
0484:  BCF    F94.0
0486:  BCF    F8B.0
....................       output_low(pin_c1); 
0488:  BCF    F94.1
048A:  BCF    F8B.1
....................       output_high(pin_c2); 
048C:  BCF    F94.2
048E:  BSF    F8B.2
....................       output_low(pin_c3); 
0490:  BCF    F94.3
0492:  BCF    F8B.3
....................       output_low(pin_c4); 
0494:  BCF    F94.4
0496:  BCF    F8B.4
....................       output_low(pin_c5); 
0498:  BCF    F94.5
049A:  BCF    F8B.5
....................       output_low(pin_c6); 
049C:  BCF    F94.6
049E:  BCF    F8B.6
....................       output_low(pin_c7); 
04A0:  BCF    F94.7
04A2:  BCF    F8B.7
....................       } 
....................       if(a==1 && b==0 && c==1 && d==1){ 
04A4:  DECFSZ 17,W
04A6:  BRA    04F4
04A8:  MOVF   18,F
04AA:  BNZ   04F4
04AC:  DECFSZ 19,W
04AE:  BRA    04F4
04B0:  DECFSZ 1A,W
04B2:  BRA    04F4
....................       output_high(pin_b0); 
04B4:  BCF    F93.0
04B6:  BSF    F8A.0
....................       output_high(pin_b1); 
04B8:  BCF    F93.1
04BA:  BSF    F8A.1
....................       output_high(pin_b2); 
04BC:  BCF    F93.2
04BE:  BSF    F8A.2
....................       output_high(pin_b3); 
04C0:  BCF    F93.3
04C2:  BSF    F8A.3
....................       output_high(pin_b4); 
04C4:  BCF    F93.4
04C6:  BSF    F8A.4
....................       output_high(pin_b5); 
04C8:  BCF    F93.5
04CA:  BSF    F8A.5
....................       output_high(pin_b6); 
04CC:  BCF    F93.6
04CE:  BSF    F8A.6
....................       output_high(pin_b7); 
04D0:  BCF    F93.7
04D2:  BSF    F8A.7
....................       output_low(pin_c0); 
04D4:  BCF    F94.0
04D6:  BCF    F8B.0
....................       output_low(pin_c1); 
04D8:  BCF    F94.1
04DA:  BCF    F8B.1
....................       output_low(pin_c2); 
04DC:  BCF    F94.2
04DE:  BCF    F8B.2
....................       output_high(pin_c3); 
04E0:  BCF    F94.3
04E2:  BSF    F8B.3
....................       output_low(pin_c4); 
04E4:  BCF    F94.4
04E6:  BCF    F8B.4
....................       output_low(pin_c5); 
04E8:  BCF    F94.5
04EA:  BCF    F8B.5
....................       output_low(pin_c6); 
04EC:  BCF    F94.6
04EE:  BCF    F8B.6
....................       output_low(pin_c7); 
04F0:  BCF    F94.7
04F2:  BCF    F8B.7
....................       } 
....................       if(a==1 && b==1 && c==0 && d==0){ 
04F4:  DECFSZ 17,W
04F6:  BRA    0544
04F8:  DECFSZ 18,W
04FA:  BRA    0544
04FC:  MOVF   19,F
04FE:  BNZ   0544
0500:  MOVF   1A,F
0502:  BNZ   0544
....................       output_high(pin_b0); 
0504:  BCF    F93.0
0506:  BSF    F8A.0
....................       output_high(pin_b1); 
0508:  BCF    F93.1
050A:  BSF    F8A.1
....................       output_high(pin_b2); 
050C:  BCF    F93.2
050E:  BSF    F8A.2
....................       output_high(pin_b3); 
0510:  BCF    F93.3
0512:  BSF    F8A.3
....................       output_high(pin_b4); 
0514:  BCF    F93.4
0516:  BSF    F8A.4
....................       output_high(pin_b5); 
0518:  BCF    F93.5
051A:  BSF    F8A.5
....................       output_high(pin_b6); 
051C:  BCF    F93.6
051E:  BSF    F8A.6
....................       output_high(pin_b7); 
0520:  BCF    F93.7
0522:  BSF    F8A.7
....................       output_low(pin_c0); 
0524:  BCF    F94.0
0526:  BCF    F8B.0
....................       output_low(pin_c1); 
0528:  BCF    F94.1
052A:  BCF    F8B.1
....................       output_low(pin_c2); 
052C:  BCF    F94.2
052E:  BCF    F8B.2
....................       output_low(pin_c3); 
0530:  BCF    F94.3
0532:  BCF    F8B.3
....................       output_high(pin_c4); 
0534:  BCF    F94.4
0536:  BSF    F8B.4
....................       output_low(pin_c5); 
0538:  BCF    F94.5
053A:  BCF    F8B.5
....................       output_low(pin_c6); 
053C:  BCF    F94.6
053E:  BCF    F8B.6
....................       output_low(pin_c7); 
0540:  BCF    F94.7
0542:  BCF    F8B.7
....................       } 
....................       if(a==1 && b==1 && c==0 && d==1){ 
0544:  DECFSZ 17,W
0546:  BRA    0594
0548:  DECFSZ 18,W
054A:  BRA    0594
054C:  MOVF   19,F
054E:  BNZ   0594
0550:  DECFSZ 1A,W
0552:  BRA    0594
....................       output_high(pin_b0); 
0554:  BCF    F93.0
0556:  BSF    F8A.0
....................       output_high(pin_b1); 
0558:  BCF    F93.1
055A:  BSF    F8A.1
....................       output_high(pin_b2); 
055C:  BCF    F93.2
055E:  BSF    F8A.2
....................       output_high(pin_b3); 
0560:  BCF    F93.3
0562:  BSF    F8A.3
....................       output_high(pin_b4); 
0564:  BCF    F93.4
0566:  BSF    F8A.4
....................       output_high(pin_b5); 
0568:  BCF    F93.5
056A:  BSF    F8A.5
....................       output_high(pin_b6); 
056C:  BCF    F93.6
056E:  BSF    F8A.6
....................       output_high(pin_b7); 
0570:  BCF    F93.7
0572:  BSF    F8A.7
....................       output_low(pin_c0); 
0574:  BCF    F94.0
0576:  BCF    F8B.0
....................       output_low(pin_c1); 
0578:  BCF    F94.1
057A:  BCF    F8B.1
....................       output_low(pin_c2); 
057C:  BCF    F94.2
057E:  BCF    F8B.2
....................       output_low(pin_c3); 
0580:  BCF    F94.3
0582:  BCF    F8B.3
....................       output_low(pin_c4); 
0584:  BCF    F94.4
0586:  BCF    F8B.4
....................       output_high(pin_c5); 
0588:  BCF    F94.5
058A:  BSF    F8B.5
....................       output_low(pin_c6); 
058C:  BCF    F94.6
058E:  BCF    F8B.6
....................       output_low(pin_c7); 
0590:  BCF    F94.7
0592:  BCF    F8B.7
....................       } 
....................       if(a==1 && b==1 && c==1 && d==0){ 
0594:  DECFSZ 17,W
0596:  BRA    05E4
0598:  DECFSZ 18,W
059A:  BRA    05E4
059C:  DECFSZ 19,W
059E:  BRA    05E4
05A0:  MOVF   1A,F
05A2:  BNZ   05E4
....................       output_high(pin_b0); 
05A4:  BCF    F93.0
05A6:  BSF    F8A.0
....................       output_high(pin_b1); 
05A8:  BCF    F93.1
05AA:  BSF    F8A.1
....................       output_high(pin_b2); 
05AC:  BCF    F93.2
05AE:  BSF    F8A.2
....................       output_high(pin_b3); 
05B0:  BCF    F93.3
05B2:  BSF    F8A.3
....................       output_high(pin_b4); 
05B4:  BCF    F93.4
05B6:  BSF    F8A.4
....................       output_high(pin_b5); 
05B8:  BCF    F93.5
05BA:  BSF    F8A.5
....................       output_high(pin_b6); 
05BC:  BCF    F93.6
05BE:  BSF    F8A.6
....................       output_high(pin_b7); 
05C0:  BCF    F93.7
05C2:  BSF    F8A.7
....................       output_low(pin_c0); 
05C4:  BCF    F94.0
05C6:  BCF    F8B.0
....................       output_low(pin_c1); 
05C8:  BCF    F94.1
05CA:  BCF    F8B.1
....................       output_low(pin_c2); 
05CC:  BCF    F94.2
05CE:  BCF    F8B.2
....................       output_low(pin_c3); 
05D0:  BCF    F94.3
05D2:  BCF    F8B.3
....................       output_low(pin_c4); 
05D4:  BCF    F94.4
05D6:  BCF    F8B.4
....................       output_low(pin_c5); 
05D8:  BCF    F94.5
05DA:  BCF    F8B.5
....................       output_high(pin_c6); 
05DC:  BCF    F94.6
05DE:  BSF    F8B.6
....................       output_low(pin_c7); 
05E0:  BCF    F94.7
05E2:  BCF    F8B.7
....................       } 
....................       if(a==1 && b==1 && c==1 && d==1){ 
05E4:  DECFSZ 17,W
05E6:  BRA    0634
05E8:  DECFSZ 18,W
05EA:  BRA    0634
05EC:  DECFSZ 19,W
05EE:  BRA    0634
05F0:  DECFSZ 1A,W
05F2:  BRA    0634
....................       output_high(pin_b0); 
05F4:  BCF    F93.0
05F6:  BSF    F8A.0
....................       output_high(pin_b1); 
05F8:  BCF    F93.1
05FA:  BSF    F8A.1
....................       output_high(pin_b2); 
05FC:  BCF    F93.2
05FE:  BSF    F8A.2
....................       output_high(pin_b3); 
0600:  BCF    F93.3
0602:  BSF    F8A.3
....................       output_high(pin_b4); 
0604:  BCF    F93.4
0606:  BSF    F8A.4
....................       output_high(pin_b5); 
0608:  BCF    F93.5
060A:  BSF    F8A.5
....................       output_high(pin_b6); 
060C:  BCF    F93.6
060E:  BSF    F8A.6
....................       output_high(pin_b7); 
0610:  BCF    F93.7
0612:  BSF    F8A.7
....................       output_low(pin_c0); 
0614:  BCF    F94.0
0616:  BCF    F8B.0
....................       output_low(pin_c1); 
0618:  BCF    F94.1
061A:  BCF    F8B.1
....................       output_low(pin_c2); 
061C:  BCF    F94.2
061E:  BCF    F8B.2
....................       output_low(pin_c3); 
0620:  BCF    F94.3
0622:  BCF    F8B.3
....................       output_low(pin_c4); 
0624:  BCF    F94.4
0626:  BCF    F8B.4
....................       output_low(pin_c5); 
0628:  BCF    F94.5
062A:  BCF    F8B.5
....................       output_low(pin_c6); 
062C:  BCF    F94.6
062E:  BCF    F8B.6
....................       output_high(pin_c7); 
0630:  BCF    F94.7
0632:  BSF    F8B.7
....................       } 
0634:  BRA    0114
....................    } 
....................  
.................... } 
0636:  SLEEP 

Configuration Fuses:
   Word  1: 2100   XT NOOSCSEN
   Word  2: 0E0C   PUT NOBROWNOUT BORV20 NOWDT WDT128
   Word  3: 0100   CCP2C1
   Word  4: 0081   STVREN NOLVP NODEBUG
   Word  5: C00F   NOPROTECT NOCPB NOCPD
   Word  6: E00F   NOWRT NOWRTC NOWRTB NOWRTD
   Word  7: 400F   NOEBTR NOEBTRB
